target datalayout = "e-m:e-p270:32:32-p271:32:32-p272:64:64-i64:64-i128:128-f80:128-n8:16:32:64-S128"
target triple = "x86_64-pc-linux-gnu"

%"class.google::protobuf::MessageLite" = type { ptr, %"class.google::protobuf::internal::InternalMetadata" }
%"class.google::protobuf::internal::InternalMetadata" = type { ptr }
%"class.google::protobuf::internal::RepeatedPtrFieldBase" = type { ptr, i32, i32, ptr }
%"class.google::protobuf::internal::CachedSize" = type { %"struct.std::atomic.47" }
%"struct.std::atomic.47" = type { %"struct.std::__atomic_base.48" }
%"struct.std::__atomic_base.48" = type { i32 }
%"class.i18n::phonenumbers::PhoneMetadata" = type <{ %"class.google::protobuf::MessageLite", %"class.google::protobuf::internal::HasBits", %"class.google::protobuf::internal::CachedSize", %"class.google::protobuf::RepeatedPtrField.54", %"class.google::protobuf::RepeatedPtrField.54", %"struct.google::protobuf::internal::ArenaStringPtr", %"struct.google::protobuf::internal::ArenaStringPtr", %"struct.google::protobuf::internal::ArenaStringPtr", %"struct.google::protobuf::internal::ArenaStringPtr", %"struct.google::protobuf::internal::ArenaStringPtr", %"struct.google::protobuf::internal::ArenaStringPtr", %"struct.google::protobuf::internal::ArenaStringPtr", %"struct.google::protobuf::internal::ArenaStringPtr", ptr, ptr, ptr, ptr, ptr, ptr, ptr, ptr, ptr, ptr, ptr, ptr, ptr, ptr, ptr, ptr, ptr, i32, i8, i8, i8, i8 }>
%"class.google::protobuf::internal::HasBits" = type { [1 x i32] }
%"class.google::protobuf::RepeatedPtrField.54" = type { %"class.google::protobuf::internal::RepeatedPtrFieldBase" }
%"struct.google::protobuf::internal::ArenaStringPtr" = type { ptr }
%"class.i18n::phonenumbers::StringHolder" = type { %"class.absl::debian2::AlphaNum" }
%"class.absl::debian2::AlphaNum" = type { %"class.absl::debian2::string_view", [32 x i8] }
%"class.absl::debian2::string_view" = type { ptr, i64 }
%"class.i18n::phonenumbers::PhoneNumber" = type { %"class.google::protobuf::MessageLite", %"class.google::protobuf::internal::HasBits", %"class.google::protobuf::internal::CachedSize", %"struct.google::protobuf::internal::ArenaStringPtr", %"struct.google::protobuf::internal::ArenaStringPtr", %"struct.google::protobuf::internal::ArenaStringPtr", i64, i32, i8, i32, i32 }

@_ZN4i18n12phonenumbers12_GLOBAL__N_118kRfc3966ExtnPrefixE = internal constant [6 x i8] c";ext=\00", align 1
@_ZN4i18n12phonenumbers12_GLOBAL__N_118kDefaultExtnPrefixE = internal constant [7 x i8] c" ext. \00", align 1

; Function Attrs: mustprogress nounwind uwtable
define linkonce_odr dso_local noundef nonnull align 8 dereferenceable(32) ptr @_ZNK6google8protobuf8internal14ArenaStringPtr3GetB5cxx11Ev(ptr noundef nonnull align 8 dereferenceable(8) %0) #5 comdat align 2 {
  %2 = alloca ptr, align 8
  store ptr %0, ptr %2, align 8
  %3 = load ptr, ptr %2, align 8
  %4 = getelementptr inbounds %"struct.google::protobuf::internal::ArenaStringPtr", ptr %3, i32 0, i32 0
  %5 = load ptr, ptr %4, align 8
  ret ptr %5
}

; Function Attrs: mustprogress nounwind uwtable
define linkonce_odr dso_local noundef nonnull align 8 dereferenceable(32) ptr @_ZNK4i18n12phonenumbers13PhoneMetadata31_internal_preferred_extn_prefixB5cxx11Ev(ptr noundef nonnull align 8 dereferenceable(280) %0) #5 comdat align 2 {
  %2 = alloca ptr, align 8
  store ptr %0, ptr %2, align 8
  %3 = load ptr, ptr %2, align 8
  %4 = getelementptr inbounds %"class.i18n::phonenumbers::PhoneMetadata", ptr %3, i32 0, i32 8
  %5 = call noundef nonnull align 8 dereferenceable(32) ptr @_ZNK6google8protobuf8internal14ArenaStringPtr3GetB5cxx11Ev(ptr noundef nonnull align 8 dereferenceable(8) %4)
  ret ptr %5
}

; Function Attrs: mustprogress nounwind uwtable
define linkonce_odr dso_local noundef zeroext i1 @_ZNK4i18n12phonenumbers13PhoneMetadata35_internal_has_preferred_extn_prefixEv(ptr noundef nonnull align 8 dereferenceable(280) %0) #5 comdat align 2 {
  %2 = alloca ptr, align 8
  %3 = alloca i32, align 4
  %4 = alloca ptr, align 8
  %5 = alloca i8, align 1
  store ptr %0, ptr %4, align 8
  %6 = load ptr, ptr %4, align 8
  %7 = getelementptr inbounds %"class.i18n::phonenumbers::PhoneMetadata", ptr %6, i32 0, i32 1
  store ptr %7, ptr %2, align 8
  store i32 0, ptr %3, align 4
  %8 = load ptr, ptr %2, align 8
  %9 = load i32, ptr %3, align 4
  %10 = sext i32 %9 to i64
  %11 = getelementptr inbounds [1 x i32], ptr %8, i64 0, i64 %10
  %12 = load i32, ptr %11, align 4
  %13 = and i32 %12, 8
  %14 = icmp ne i32 %13, 0
  %15 = zext i1 %14 to i8
  store i8 %15, ptr %5, align 1
  %16 = load i8, ptr %5, align 1
  %17 = trunc i8 %16 to i1
  ret i1 %17
}

; Function Attrs: mustprogress nounwind uwtable
define linkonce_odr dso_local noundef nonnull align 8 dereferenceable(32) ptr @_ZNK4i18n12phonenumbers11PhoneNumber19_internal_extensionB5cxx11Ev(ptr noundef nonnull align 8 dereferenceable(72) %0) #5 comdat align 2 {
  %2 = alloca ptr, align 8
  store ptr %0, ptr %2, align 8
  %3 = load ptr, ptr %2, align 8
  %4 = getelementptr inbounds %"class.i18n::phonenumbers::PhoneNumber", ptr %3, i32 0, i32 3
  %5 = call noundef nonnull align 8 dereferenceable(32) ptr @_ZNK6google8protobuf8internal14ArenaStringPtr3GetB5cxx11Ev(ptr noundef nonnull align 8 dereferenceable(8) %4)
  ret ptr %5
}

; Function Attrs: mustprogress nounwind uwtable
define linkonce_odr dso_local noundef zeroext i1 @_ZNK4i18n12phonenumbers11PhoneNumber23_internal_has_extensionEv(ptr noundef nonnull align 8 dereferenceable(72) %0) #5 comdat align 2 {
  %2 = alloca ptr, align 8
  %3 = alloca i32, align 4
  %4 = alloca ptr, align 8
  %5 = alloca i8, align 1
  store ptr %0, ptr %4, align 8
  %6 = load ptr, ptr %4, align 8
  %7 = getelementptr inbounds %"class.i18n::phonenumbers::PhoneNumber", ptr %6, i32 0, i32 1
  store ptr %7, ptr %2, align 8
  store i32 0, ptr %3, align 4
  %8 = load ptr, ptr %2, align 8
  %9 = load i32, ptr %3, align 4
  %10 = sext i32 %9 to i64
  %11 = getelementptr inbounds [1 x i32], ptr %8, i64 0, i64 %10
  %12 = load i32, ptr %11, align 4
  %13 = and i32 %12, 1
  %14 = icmp ne i32 %13, 0
  %15 = zext i1 %14 to i8
  store i8 %15, ptr %5, align 1
  %16 = load i8, ptr %5, align 1
  %17 = trunc i8 %16 to i1
  ret i1 %17
}

; Function Attrs: mustprogress uwtable
define linkonce_odr dso_local noundef nonnull align 8 dereferenceable(32) ptr @_ZNK4i18n12phonenumbers13PhoneMetadata21preferred_extn_prefixB5cxx11Ev(ptr noundef nonnull align 8 dereferenceable(280) %0) #4 comdat align 2 {
  %2 = alloca ptr, align 8
  store ptr %0, ptr %2, align 8
  %3 = load ptr, ptr %2, align 8
  %4 = call noundef nonnull align 8 dereferenceable(32) ptr @_ZNK4i18n12phonenumbers13PhoneMetadata31_internal_preferred_extn_prefixB5cxx11Ev(ptr noundef nonnull align 8 dereferenceable(280) %3)
  ret ptr %4
}

; Function Attrs: mustprogress uwtable
define linkonce_odr dso_local noundef zeroext i1 @_ZNK4i18n12phonenumbers13PhoneMetadata25has_preferred_extn_prefixEv(ptr noundef nonnull align 8 dereferenceable(280) %0) #4 comdat align 2 {
  %2 = alloca ptr, align 8
  store ptr %0, ptr %2, align 8
  %3 = load ptr, ptr %2, align 8
  %4 = call noundef zeroext i1 @_ZNK4i18n12phonenumbers13PhoneMetadata35_internal_has_preferred_extn_prefixEv(ptr noundef nonnull align 8 dereferenceable(280) %3)
  ret i1 %4
}

; Function Attrs: mustprogress uwtable
define linkonce_odr dso_local noundef nonnull align 8 dereferenceable(32) ptr @_ZNK4i18n12phonenumbers11PhoneNumber9extensionB5cxx11Ev(ptr noundef nonnull align 8 dereferenceable(72) %0) #4 comdat align 2 {
  %2 = alloca ptr, align 8
  store ptr %0, ptr %2, align 8
  %3 = load ptr, ptr %2, align 8
  %4 = call noundef nonnull align 8 dereferenceable(32) ptr @_ZNK4i18n12phonenumbers11PhoneNumber19_internal_extensionB5cxx11Ev(ptr noundef nonnull align 8 dereferenceable(72) %3)
  ret ptr %4
}

; Function Attrs: mustprogress uwtable
define linkonce_odr dso_local noundef zeroext i1 @_ZNK4i18n12phonenumbers11PhoneNumber13has_extensionEv(ptr noundef nonnull align 8 dereferenceable(72) %0) #4 comdat align 2 {
  %2 = alloca ptr, align 8
  store ptr %0, ptr %2, align 8
  %3 = load ptr, ptr %2, align 8
  %4 = call noundef zeroext i1 @_ZNK4i18n12phonenumbers11PhoneNumber23_internal_has_extensionEv(ptr noundef nonnull align 8 dereferenceable(72) %3)
  ret i1 %4
}

; Function Attrs: mustprogress uwtable
define dso_local void @_ZNK4i18n12phonenumbers15PhoneNumberUtil29MaybeAppendFormattedExtensionERKNS0_11PhoneNumberERKNS0_13PhoneMetadataENS1_17PhoneNumberFormatEPNSt7__cxx1112basic_stringIcSt11char_traitsIcESaIcEEE(ptr noundef nonnull align 8 dereferenceable(64) %0, ptr noundef nonnull align 8 dereferenceable(72) %1, ptr noundef nonnull align 8 dereferenceable(280) %2, i32 noundef %3, ptr noundef %4) #4 align 2 personality ptr @__gxx_personality_v0 {
  %6 = alloca ptr, align 8
  %7 = alloca ptr, align 8
  %8 = alloca ptr, align 8
  %9 = alloca i32, align 4
  %10 = alloca ptr, align 8
  %11 = alloca %"class.i18n::phonenumbers::StringHolder", align 8
  %12 = alloca %"class.i18n::phonenumbers::StringHolder", align 8
  %13 = alloca ptr, align 8
  %14 = alloca i32, align 4
  %15 = alloca %"class.i18n::phonenumbers::StringHolder", align 8
  %16 = alloca %"class.i18n::phonenumbers::StringHolder", align 8
  %17 = alloca %"class.i18n::phonenumbers::StringHolder", align 8
  %18 = alloca %"class.i18n::phonenumbers::StringHolder", align 8
  store ptr %0, ptr %6, align 8
  store ptr %1, ptr %7, align 8
  store ptr %2, ptr %8, align 8
  store i32 %3, ptr %9, align 4
  store ptr %4, ptr %10, align 8
  %19 = load ptr, ptr %7, align 8
  %20 = call noundef zeroext i1 @_ZNK4i18n12phonenumbers11PhoneNumber13has_extensionEv(ptr noundef nonnull align 8 dereferenceable(72) %19)
  br i1 %20, label %21, label %84

21:                                               ; preds = %5
  %22 = load ptr, ptr %7, align 8
  %23 = call noundef nonnull align 8 dereferenceable(32) ptr @_ZNK4i18n12phonenumbers11PhoneNumber9extensionB5cxx11Ev(ptr noundef nonnull align 8 dereferenceable(72) %22)
  %24 = call noundef i64 @_ZNKSt7__cxx1112basic_stringIcSt11char_traitsIcESaIcEE6lengthEv(ptr noundef nonnull align 8 dereferenceable(32) %23) #3
  %25 = icmp ugt i64 %24, 0
  br i1 %25, label %26, label %84

26:                                               ; preds = %21
  %27 = load i32, ptr %9, align 4
  %28 = icmp eq i32 %27, 3
  br i1 %28, label %29, label %45

29:                                               ; preds = %26
  %30 = load ptr, ptr %10, align 8
  call void @_ZN4i18n12phonenumbers12StringHolderC1EPKc(ptr noundef nonnull align 8 dereferenceable(48) %11, ptr noundef @_ZN4i18n12phonenumbers12_GLOBAL__N_118kRfc3966ExtnPrefixE)
  %31 = load ptr, ptr %7, align 8
  %32 = invoke noundef nonnull align 8 dereferenceable(32) ptr @_ZNK4i18n12phonenumbers11PhoneNumber9extensionB5cxx11Ev(ptr noundef nonnull align 8 dereferenceable(72) %31)
          to label %33 unwind label %36

33:                                               ; preds = %29
  invoke void @_ZN4i18n12phonenumbers12StringHolderC1ERKNSt7__cxx1112basic_stringIcSt11char_traitsIcESaIcEEE(ptr noundef nonnull align 8 dereferenceable(48) %12, ptr noundef nonnull align 8 dereferenceable(32) %32)
          to label %34 unwind label %36

34:                                               ; preds = %33
  invoke void @_ZN4i18n12phonenumbers9StrAppendEPNSt7__cxx1112basic_stringIcSt11char_traitsIcESaIcEEERKNS0_12StringHolderESA_(ptr noundef %30, ptr noundef nonnull align 8 dereferenceable(48) %11, ptr noundef nonnull align 8 dereferenceable(48) %12)
          to label %35 unwind label %40

35:                                               ; preds = %34
  call void @_ZN4i18n12phonenumbers12StringHolderD1Ev(ptr noundef nonnull align 8 dereferenceable(48) %12) #3
  call void @_ZN4i18n12phonenumbers12StringHolderD1Ev(ptr noundef nonnull align 8 dereferenceable(48) %11) #3
  br label %83

36:                                               ; preds = %33, %29
  %37 = landingpad { ptr, i32 }
          cleanup
  %38 = extractvalue { ptr, i32 } %37, 0
  store ptr %38, ptr %13, align 8
  %39 = extractvalue { ptr, i32 } %37, 1
  store i32 %39, ptr %14, align 4
  br label %44

40:                                               ; preds = %34
  %41 = landingpad { ptr, i32 }
          cleanup
  %42 = extractvalue { ptr, i32 } %41, 0
  store ptr %42, ptr %13, align 8
  %43 = extractvalue { ptr, i32 } %41, 1
  store i32 %43, ptr %14, align 4
  call void @_ZN4i18n12phonenumbers12StringHolderD1Ev(ptr noundef nonnull align 8 dereferenceable(48) %12) #3
  br label %44

44:                                               ; preds = %40, %36
  call void @_ZN4i18n12phonenumbers12StringHolderD1Ev(ptr noundef nonnull align 8 dereferenceable(48) %11) #3
  br label %85

45:                                               ; preds = %26
  %46 = load ptr, ptr %8, align 8
  %47 = call noundef zeroext i1 @_ZNK4i18n12phonenumbers13PhoneMetadata25has_preferred_extn_prefixEv(ptr noundef nonnull align 8 dereferenceable(280) %46)
  br i1 %47, label %48, label %66

48:                                               ; preds = %45
  %49 = load ptr, ptr %10, align 8
  %50 = load ptr, ptr %8, align 8
  %51 = call noundef nonnull align 8 dereferenceable(32) ptr @_ZNK4i18n12phonenumbers13PhoneMetadata21preferred_extn_prefixB5cxx11Ev(ptr noundef nonnull align 8 dereferenceable(280) %50)
  call void @_ZN4i18n12phonenumbers12StringHolderC1ERKNSt7__cxx1112basic_stringIcSt11char_traitsIcESaIcEEE(ptr noundef nonnull align 8 dereferenceable(48) %15, ptr noundef nonnull align 8 dereferenceable(32) %51)
  %52 = load ptr, ptr %7, align 8
  %53 = invoke noundef nonnull align 8 dereferenceable(32) ptr @_ZNK4i18n12phonenumbers11PhoneNumber9extensionB5cxx11Ev(ptr noundef nonnull align 8 dereferenceable(72) %52)
          to label %54 unwind label %57

54:                                               ; preds = %48
  invoke void @_ZN4i18n12phonenumbers12StringHolderC1ERKNSt7__cxx1112basic_stringIcSt11char_traitsIcESaIcEEE(ptr noundef nonnull align 8 dereferenceable(48) %16, ptr noundef nonnull align 8 dereferenceable(32) %53)
          to label %55 unwind label %57

55:                                               ; preds = %54
  invoke void @_ZN4i18n12phonenumbers9StrAppendEPNSt7__cxx1112basic_stringIcSt11char_traitsIcESaIcEEERKNS0_12StringHolderESA_(ptr noundef %49, ptr noundef nonnull align 8 dereferenceable(48) %15, ptr noundef nonnull align 8 dereferenceable(48) %16)
          to label %56 unwind label %61

56:                                               ; preds = %55
  call void @_ZN4i18n12phonenumbers12StringHolderD1Ev(ptr noundef nonnull align 8 dereferenceable(48) %16) #3
  call void @_ZN4i18n12phonenumbers12StringHolderD1Ev(ptr noundef nonnull align 8 dereferenceable(48) %15) #3
  br label %82

57:                                               ; preds = %54, %48
  %58 = landingpad { ptr, i32 }
          cleanup
  %59 = extractvalue { ptr, i32 } %58, 0
  store ptr %59, ptr %13, align 8
  %60 = extractvalue { ptr, i32 } %58, 1
  store i32 %60, ptr %14, align 4
  br label %65

61:                                               ; preds = %55
  %62 = landingpad { ptr, i32 }
          cleanup
  %63 = extractvalue { ptr, i32 } %62, 0
  store ptr %63, ptr %13, align 8
  %64 = extractvalue { ptr, i32 } %62, 1
  store i32 %64, ptr %14, align 4
  call void @_ZN4i18n12phonenumbers12StringHolderD1Ev(ptr noundef nonnull align 8 dereferenceable(48) %16) #3
  br label %65

65:                                               ; preds = %61, %57
  call void @_ZN4i18n12phonenumbers12StringHolderD1Ev(ptr noundef nonnull align 8 dereferenceable(48) %15) #3
  br label %85

66:                                               ; preds = %45
  %67 = load ptr, ptr %10, align 8
  call void @_ZN4i18n12phonenumbers12StringHolderC1EPKc(ptr noundef nonnull align 8 dereferenceable(48) %17, ptr noundef @_ZN4i18n12phonenumbers12_GLOBAL__N_118kDefaultExtnPrefixE)
  %68 = load ptr, ptr %7, align 8
  %69 = invoke noundef nonnull align 8 dereferenceable(32) ptr @_ZNK4i18n12phonenumbers11PhoneNumber9extensionB5cxx11Ev(ptr noundef nonnull align 8 dereferenceable(72) %68)
          to label %70 unwind label %73

70:                                               ; preds = %66
  invoke void @_ZN4i18n12phonenumbers12StringHolderC1ERKNSt7__cxx1112basic_stringIcSt11char_traitsIcESaIcEEE(ptr noundef nonnull align 8 dereferenceable(48) %18, ptr noundef nonnull align 8 dereferenceable(32) %69)
          to label %71 unwind label %73

71:                                               ; preds = %70
  invoke void @_ZN4i18n12phonenumbers9StrAppendEPNSt7__cxx1112basic_stringIcSt11char_traitsIcESaIcEEERKNS0_12StringHolderESA_(ptr noundef %67, ptr noundef nonnull align 8 dereferenceable(48) %17, ptr noundef nonnull align 8 dereferenceable(48) %18)
          to label %72 unwind label %77

72:                                               ; preds = %71
  call void @_ZN4i18n12phonenumbers12StringHolderD1Ev(ptr noundef nonnull align 8 dereferenceable(48) %18) #3
  call void @_ZN4i18n12phonenumbers12StringHolderD1Ev(ptr noundef nonnull align 8 dereferenceable(48) %17) #3
  br label %82

73:                                               ; preds = %70, %66
  %74 = landingpad { ptr, i32 }
          cleanup
  %75 = extractvalue { ptr, i32 } %74, 0
  store ptr %75, ptr %13, align 8
  %76 = extractvalue { ptr, i32 } %74, 1
  store i32 %76, ptr %14, align 4
  br label %81

77:                                               ; preds = %71
  %78 = landingpad { ptr, i32 }
          cleanup
  %79 = extractvalue { ptr, i32 } %78, 0
  store ptr %79, ptr %13, align 8
  %80 = extractvalue { ptr, i32 } %78, 1
  store i32 %80, ptr %14, align 4
  call void @_ZN4i18n12phonenumbers12StringHolderD1Ev(ptr noundef nonnull align 8 dereferenceable(48) %18) #3
  br label %81

81:                                               ; preds = %77, %73
  call void @_ZN4i18n12phonenumbers12StringHolderD1Ev(ptr noundef nonnull align 8 dereferenceable(48) %17) #3
  br label %85

82:                                               ; preds = %72, %56
  br label %83

83:                                               ; preds = %82, %35
  br label %84

84:                                               ; preds = %83, %21, %5
  ret void

85:                                               ; preds = %81, %65, %44
  %86 = load ptr, ptr %13, align 8
  %87 = load i32, ptr %14, align 4
  %88 = insertvalue { ptr, i32 } poison, ptr %86, 0
  %89 = insertvalue { ptr, i32 } %88, i32 %87, 1
  resume { ptr, i32 } %89
}