; Function Attrs: mustprogress uwtable
define dso_local void @_ZNK4i18n12phonenumbers15PhoneNumberUtil29MaybeAppendFormattedExtensionERKNS0_11PhoneNumberERKNS0_13PhoneMetadataENS1_17PhoneNumberFormatEPNSt7__cxx1112basic_stringIcSt11char_traitsIcESaIcEEE(ptr nocapture nonnull readnone align 8 %0, ptr nocapture noundef nonnull readonly align 8 dereferenceable(72) %1, ptr nocapture noundef nonnull readonly align 8 dereferenceable(280) %2, i32 noundef %3, ptr noundef %4) local_unnamed_addr #4 align 2 personality ptr @__gxx_personality_v0 {
  %6 = alloca %"class.i18n::phonenumbers::StringHolder", align 8
  %7 = alloca %"class.i18n::phonenumbers::StringHolder", align 8
  %8 = alloca %"class.i18n::phonenumbers::StringHolder", align 8
  %9 = alloca %"class.i18n::phonenumbers::StringHolder", align 8
  %10 = alloca %"class.i18n::phonenumbers::StringHolder", align 8
  %11 = alloca %"class.i18n::phonenumbers::StringHolder", align 8
  %12 = getelementptr inbounds i8, ptr %1, i64 16
  %13 = load i32, ptr %12, align 8
  %14 = and i32 %13, 1
  %.not22 = icmp eq i32 %14, 0
  br i1 %.not22, label %48, label %15

15:                                               ; preds = %5
  %16 = getelementptr inbounds i8, ptr %1, i64 24
  %17 = load ptr, ptr %16, align 8
  %18 = tail call noundef i64 @_ZNKSt7__cxx1112basic_stringIcSt11char_traitsIcESaIcEE6lengthEv(ptr noundef nonnull align 8 dereferenceable(32) %17) #26
  %.not = icmp eq i64 %18, 0
  br i1 %.not, label %48, label %19

19:                                               ; preds = %15
  %20 = icmp eq i32 %3, 3
  br i1 %20, label %21, label %28

21:                                               ; preds = %19
  call void @_ZN4i18n12phonenumbers12StringHolderC1EPKc(ptr noundef nonnull align 8 dereferenceable(48) %6, ptr noundef nonnull @_ZN4i18n12phonenumbers12_GLOBAL__N_118kRfc3966ExtnPrefixE)
  %22 = load ptr, ptr %16, align 8
  invoke void @_ZN4i18n12phonenumbers12StringHolderC1ERKNSt7__cxx1112basic_stringIcSt11char_traitsIcESaIcEEE(ptr noundef nonnull align 8 dereferenceable(48) %7, ptr noundef nonnull align 8 dereferenceable(32) %22)
          to label %23 unwind label %24

23:                                               ; preds = %21
  invoke void @_ZN4i18n12phonenumbers9StrAppendEPNSt7__cxx1112basic_stringIcSt11char_traitsIcESaIcEEERKNS0_12StringHolderESA_(ptr noundef %4, ptr noundef nonnull align 8 dereferenceable(48) %6, ptr noundef nonnull align 8 dereferenceable(48) %7)
          to label %.sink.split unwind label %26

24:                                               ; preds = %21
  %25 = landingpad { ptr, i32 }
          cleanup
  br label %49

26:                                               ; preds = %23
  %27 = landingpad { ptr, i32 }
          cleanup
  call void @_ZN4i18n12phonenumbers12StringHolderD1Ev(ptr noundef nonnull align 8 dereferenceable(48) %7) #26
  br label %49

28:                                               ; preds = %19
  %29 = getelementptr inbounds i8, ptr %2, i64 16
  %30 = load i32, ptr %29, align 8
  %31 = and i32 %30, 8
  %.not23 = icmp eq i32 %31, 0
  br i1 %.not23, label %41, label %32

32:                                               ; preds = %28
  %33 = getelementptr inbounds i8, ptr %2, i64 96
  %34 = load ptr, ptr %33, align 8
  call void @_ZN4i18n12phonenumbers12StringHolderC1ERKNSt7__cxx1112basic_stringIcSt11char_traitsIcESaIcEEE(ptr noundef nonnull align 8 dereferenceable(48) %8, ptr noundef nonnull align 8 dereferenceable(32) %34)
  %35 = load ptr, ptr %16, align 8
  invoke void @_ZN4i18n12phonenumbers12StringHolderC1ERKNSt7__cxx1112basic_stringIcSt11char_traitsIcESaIcEEE(ptr noundef nonnull align 8 dereferenceable(48) %9, ptr noundef nonnull align 8 dereferenceable(32) %35)
          to label %36 unwind label %37

36:                                               ; preds = %32
  invoke void @_ZN4i18n12phonenumbers9StrAppendEPNSt7__cxx1112basic_stringIcSt11char_traitsIcESaIcEEERKNS0_12StringHolderESA_(ptr noundef %4, ptr noundef nonnull align 8 dereferenceable(48) %8, ptr noundef nonnull align 8 dereferenceable(48) %9)
          to label %.sink.split unwind label %39

37:                                               ; preds = %32
  %38 = landingpad { ptr, i32 }
          cleanup
  br label %49

39:                                               ; preds = %36
  %40 = landingpad { ptr, i32 }
          cleanup
  call void @_ZN4i18n12phonenumbers12StringHolderD1Ev(ptr noundef nonnull align 8 dereferenceable(48) %9) #26
  br label %49

41:                                               ; preds = %28
  call void @_ZN4i18n12phonenumbers12StringHolderC1EPKc(ptr noundef nonnull align 8 dereferenceable(48) %10, ptr noundef nonnull @_ZN4i18n12phonenumbers12_GLOBAL__N_118kDefaultExtnPrefixE)
  %42 = load ptr, ptr %16, align 8
  invoke void @_ZN4i18n12phonenumbers12StringHolderC1ERKNSt7__cxx1112basic_stringIcSt11char_traitsIcESaIcEEE(ptr noundef nonnull align 8 dereferenceable(48) %11, ptr noundef nonnull align 8 dereferenceable(32) %42)
          to label %43 unwind label %44

43:                                               ; preds = %41
  invoke void @_ZN4i18n12phonenumbers9StrAppendEPNSt7__cxx1112basic_stringIcSt11char_traitsIcESaIcEEERKNS0_12StringHolderESA_(ptr noundef %4, ptr noundef nonnull align 8 dereferenceable(48) %10, ptr noundef nonnull align 8 dereferenceable(48) %11)
          to label %.sink.split unwind label %46

44:                                               ; preds = %41
  %45 = landingpad { ptr, i32 }
          cleanup
  br label %49

46:                                               ; preds = %43
  %47 = landingpad { ptr, i32 }
          cleanup
  call void @_ZN4i18n12phonenumbers12StringHolderD1Ev(ptr noundef nonnull align 8 dereferenceable(48) %11) #26
  br label %49

.sink.split:                                      ; preds = %43, %36, %23
  %.sink24 = phi ptr [ %7, %23 ], [ %9, %36 ], [ %11, %43 ]
  %.sink = phi ptr [ %6, %23 ], [ %8, %36 ], [ %10, %43 ]
  call void @_ZN4i18n12phonenumbers12StringHolderD1Ev(ptr noundef nonnull align 8 dereferenceable(48) %.sink24) #26
  call void @_ZN4i18n12phonenumbers12StringHolderD1Ev(ptr noundef nonnull align 8 dereferenceable(48) %.sink) #26
  br label %48

48:                                               ; preds = %.sink.split, %15, %5
  ret void

49:                                               ; preds = %44, %46, %37, %39, %24, %26
  %.sink25 = phi ptr [ %6, %26 ], [ %6, %24 ], [ %8, %39 ], [ %8, %37 ], [ %10, %46 ], [ %10, %44 ]
  %.pn19.pn = phi { ptr, i32 } [ %27, %26 ], [ %25, %24 ], [ %40, %39 ], [ %38, %37 ], [ %47, %46 ], [ %45, %44 ]
  call void @_ZN4i18n12phonenumbers12StringHolderD1Ev(ptr noundef nonnull align 8 dereferenceable(48) %.sink25) #26
  resume { ptr, i32 } %.pn19.pn
}